; Function Attrs: nounwind uwtable
define ptr @l_Lean_Meta_DiscrTree_Trie_mapArraysM___at_Lean_Meta_DiscrTree_mapArrays___spec__2___rarg(ptr noundef %0, ptr noundef %1) #2 {
  %.val = load i32, ptr %0, align 4, !tbaa !4
  %3 = icmp eq i32 %.val, 1
  %4 = getelementptr inbounds nuw i8, ptr %0, i64 8
  %5 = load ptr, ptr %4, align 8, !tbaa !9
  %6 = getelementptr inbounds nuw i8, ptr %0, i64 16
  %7 = load ptr, ptr %6, align 8, !tbaa !9
  br i1 %3, label %8, label %20

8:                                                ; preds = %2
  %9 = ptrtoint ptr %1 to i64
  %10 = and i64 %9, 1
  %.not53 = icmp eq i64 %10, 0
  br i1 %.not53, label %11, label %lean_inc.exit37

11:                                               ; preds = %8
  %.val.i = load i32, ptr %1, align 4, !tbaa !4
  %12 = icmp sgt i32 %.val.i, 0
  br i1 %12, label %13, label %15, !prof !11

13:                                               ; preds = %11
  %14 = add nuw i32 %.val.i, 1
  store i32 %14, ptr %1, align 4, !tbaa !4
  br label %lean_inc.exit37

15:                                               ; preds = %11
  %.not.i40 = icmp eq i32 %.val.i, 0
  br i1 %.not.i40, label %lean_inc.exit37, label %16

16:                                               ; preds = %15
  tail call void @lean_inc_ref_cold(ptr noundef nonnull %1) #7
  br label %lean_inc.exit37

lean_inc.exit37:                                  ; preds = %16, %15, %13, %8
  %17 = tail call ptr @lean_apply_1(ptr noundef %1, ptr noundef %5) #7
  %18 = getelementptr i8, ptr %7, i64 8
  %.val39 = load i64, ptr %18, align 8, !tbaa !14
  %19 = tail call ptr @l_Array_mapMUnsafe_map___at_Lean_Meta_DiscrTree_mapArrays___spec__3___rarg(ptr noundef %1, i64 noundef %.val39, i64 noundef 0, ptr noundef %7)
  store ptr %19, ptr %6, align 8, !tbaa !9
  store ptr %17, ptr %4, align 8, !tbaa !9
  br label %63

20:                                               ; preds = %2
  %21 = ptrtoint ptr %7 to i64
  %22 = and i64 %21, 1
  %.not = icmp eq i64 %22, 0
  br i1 %.not, label %23, label %lean_inc.exit36

23:                                               ; preds = %20
  %.val.i41 = load i32, ptr %7, align 4, !tbaa !4
  %24 = icmp sgt i32 %.val.i41, 0
  br i1 %24, label %25, label %27, !prof !11

25:                                               ; preds = %23
  %26 = add nuw i32 %.val.i41, 1
  store i32 %26, ptr %7, align 4, !tbaa !4
  br label %lean_inc.exit36

27:                                               ; preds = %23
  %.not.i42 = icmp eq i32 %.val.i41, 0
  br i1 %.not.i42, label %lean_inc.exit36, label %28

28:                                               ; preds = %27
  tail call void @lean_inc_ref_cold(ptr noundef nonnull %7) #7
  br label %lean_inc.exit36

lean_inc.exit36:                                  ; preds = %28, %27, %25, %20
  %29 = ptrtoint ptr %5 to i64
  %30 = and i64 %29, 1
  %.not50 = icmp eq i64 %30, 0
  br i1 %.not50, label %31, label %lean_inc.exit35

31:                                               ; preds = %lean_inc.exit36
  %.val.i44 = load i32, ptr %5, align 4, !tbaa !4
  %32 = icmp sgt i32 %.val.i44, 0
  br i1 %32, label %33, label %35, !prof !11

33:                                               ; preds = %31
  %34 = add nuw i32 %.val.i44, 1
  store i32 %34, ptr %5, align 4, !tbaa !4
  br label %lean_inc.exit35

35:                                               ; preds = %31
  %.not.i45 = icmp eq i32 %.val.i44, 0
  br i1 %.not.i45, label %lean_inc.exit35, label %36

36:                                               ; preds = %35
  tail call void @lean_inc_ref_cold(ptr noundef nonnull %5) #7
  br label %lean_inc.exit35

lean_inc.exit35:                                  ; preds = %36, %35, %33, %lean_inc.exit36
  %37 = ptrtoint ptr %0 to i64
  %38 = and i64 %37, 1
  %.not51 = icmp eq i64 %38, 0
  br i1 %.not51, label %39, label %lean_dec.exit

39:                                               ; preds = %lean_inc.exit35
  %40 = load i32, ptr %0, align 4, !tbaa !4
  %41 = icmp sgt i32 %40, 1
  br i1 %41, label %42, label %44, !prof !11

42:                                               ; preds = %39
  %43 = add nsw i32 %40, -1
  store i32 %43, ptr %0, align 4, !tbaa !4
  br label %lean_dec.exit

44:                                               ; preds = %39
  %.not.i = icmp eq i32 %40, 0
  br i1 %.not.i, label %lean_dec.exit, label %45

45:                                               ; preds = %44
  tail call void @lean_dec_ref_cold(ptr noundef nonnull %0) #7
  br label %lean_dec.exit

lean_dec.exit:                                    ; preds = %45, %44, %42, %lean_inc.exit35
  %46 = ptrtoint ptr %1 to i64
  %47 = and i64 %46, 1
  %.not52 = icmp eq i64 %47, 0
  br i1 %.not52, label %48, label %lean_inc.exit

48:                                               ; preds = %lean_dec.exit
  %.val.i47 = load i32, ptr %1, align 4, !tbaa !4
  %49 = icmp sgt i32 %.val.i47, 0
  br i1 %49, label %50, label %52, !prof !11

50:                                               ; preds = %48
  %51 = add nuw i32 %.val.i47, 1
  store i32 %51, ptr %1, align 4, !tbaa !4
  br label %lean_inc.exit

52:                                               ; preds = %48
  %.not.i48 = icmp eq i32 %.val.i47, 0
  br i1 %.not.i48, label %lean_inc.exit, label %53

53:                                               ; preds = %52
  tail call void @lean_inc_ref_cold(ptr noundef nonnull %1) #7
  br label %lean_inc.exit

lean_inc.exit:                                    ; preds = %53, %52, %50, %lean_dec.exit
  %54 = tail call ptr @lean_apply_1(ptr noundef %1, ptr noundef %5) #7
  %55 = getelementptr i8, ptr %7, i64 8
  %.val38 = load i64, ptr %55, align 8, !tbaa !14
  %56 = tail call ptr @l_Array_mapMUnsafe_map___at_Lean_Meta_DiscrTree_mapArrays___spec__3___rarg(ptr noundef %1, i64 noundef %.val38, i64 noundef 0, ptr noundef %7)
  tail call void @lean_inc_heartbeat() #7
  %57 = tail call noalias ptr @mi_malloc_small(i64 noundef 24) #7
  %58 = icmp eq ptr %57, null
  br i1 %58, label %59, label %lean_alloc_ctor.exit

59:                                               ; preds = %lean_inc.exit
  tail call void @lean_internal_panic_out_of_memory() #8
  unreachable

lean_alloc_ctor.exit:                             ; preds = %lean_inc.exit
  %60 = getelementptr inbounds nuw i8, ptr %57, i64 4
  store i32 1, ptr %57, align 4, !tbaa !4
  store i32 131096, ptr %60, align 4
  %61 = getelementptr inbounds nuw i8, ptr %57, i64 8
  store ptr %54, ptr %61, align 8, !tbaa !9
  %62 = getelementptr inbounds nuw i8, ptr %57, i64 16
  store ptr %56, ptr %62, align 8, !tbaa !9
  br label %63

63:                                               ; preds = %lean_alloc_ctor.exit, %lean_inc.exit37
  %.0 = phi ptr [ %0, %lean_inc.exit37 ], [ %57, %lean_alloc_ctor.exit ]
  ret ptr %.0
}